target datalayout = "e-m:e-p270:32:32-p271:32:32-p272:64:64-i64:64-i128:128-f80:128-n8:16:32:64-S128"
target triple = "x86_64-pc-linux-gnu"

%struct.BrotliHasherParams = type { i32, i32, i32, i32 }
%struct.HasherCommon = type { [4 x ptr], i32, i64, i64, %struct.BrotliHasherParams, i32 }
%struct.H58 = type { i64, i64, i32, i32, i32, i32, ptr, ptr, ptr, ptr }

; Function Attrs: nounwind uwtable
define internal void @InitializeH58(ptr noundef %0, ptr noalias noundef %1, ptr noundef %2) #0 {
  %4 = alloca ptr, align 8
  %5 = alloca ptr, align 8
  %6 = alloca ptr, align 8
  store ptr %0, ptr %4, align 8, !tbaa !48
  store ptr %1, ptr %5, align 8, !tbaa !214
  store ptr %2, ptr %6, align 8, !tbaa !129
  %7 = load ptr, ptr %4, align 8, !tbaa !48
  %8 = load ptr, ptr %5, align 8, !tbaa !214
  %9 = getelementptr inbounds nuw %struct.H58, ptr %8, i32 0, i32 6
  store ptr %7, ptr %9, align 8, !tbaa !273
  %10 = load ptr, ptr %4, align 8, !tbaa !48
  %11 = getelementptr inbounds nuw %struct.HasherCommon, ptr %10, i32 0, i32 4
  %12 = getelementptr inbounds nuw %struct.BrotliHasherParams, ptr %11, i32 0, i32 1
  %13 = load i32, ptr %12, align 4, !tbaa !240
  %14 = sub nsw i32 32, %13
  %15 = sub nsw i32 %14, 8
  %16 = load ptr, ptr %5, align 8, !tbaa !214
  %17 = getelementptr inbounds nuw %struct.H58, ptr %16, i32 0, i32 2
  store i32 %15, ptr %17, align 8, !tbaa !275
  %18 = load ptr, ptr %4, align 8, !tbaa !48
  %19 = getelementptr inbounds nuw %struct.HasherCommon, ptr %18, i32 0, i32 4
  %20 = getelementptr inbounds nuw %struct.BrotliHasherParams, ptr %19, i32 0, i32 1
  %21 = load i32, ptr %20, align 4, !tbaa !240
  %22 = zext i32 %21 to i64
  %23 = shl i64 1, %22
  %24 = load ptr, ptr %5, align 8, !tbaa !214
  %25 = getelementptr inbounds nuw %struct.H58, ptr %24, i32 0, i32 0
  store i64 %23, ptr %25, align 8, !tbaa !276
  %26 = load ptr, ptr %4, align 8, !tbaa !48
  %27 = getelementptr inbounds nuw %struct.HasherCommon, ptr %26, i32 0, i32 4
  %28 = getelementptr inbounds nuw %struct.BrotliHasherParams, ptr %27, i32 0, i32 2
  %29 = load i32, ptr %28, align 8, !tbaa !243
  %30 = zext i32 %29 to i64
  %31 = shl i64 1, %30
  %32 = load ptr, ptr %5, align 8, !tbaa !214
  %33 = getelementptr inbounds nuw %struct.H58, ptr %32, i32 0, i32 1
  store i64 %31, ptr %33, align 8, !tbaa !277
  %34 = load ptr, ptr %5, align 8, !tbaa !214
  %35 = getelementptr inbounds nuw %struct.H58, ptr %34, i32 0, i32 1
  %36 = load i64, ptr %35, align 8, !tbaa !277
  %37 = sub i64 %36, 1
  %38 = trunc i64 %37 to i32
  %39 = load ptr, ptr %5, align 8, !tbaa !214
  %40 = getelementptr inbounds nuw %struct.H58, ptr %39, i32 0, i32 3
  store i32 %38, ptr %40, align 4, !tbaa !278
  %41 = load ptr, ptr %4, align 8, !tbaa !48
  %42 = getelementptr inbounds nuw %struct.HasherCommon, ptr %41, i32 0, i32 0
  %43 = getelementptr inbounds [4 x ptr], ptr %42, i64 0, i64 0
  %44 = load ptr, ptr %43, align 8, !tbaa !48
  %45 = load ptr, ptr %5, align 8, !tbaa !214
  %46 = getelementptr inbounds nuw %struct.H58, ptr %45, i32 0, i32 7
  store ptr %44, ptr %46, align 8, !tbaa !279
  %47 = load ptr, ptr %4, align 8, !tbaa !48
  %48 = getelementptr inbounds nuw %struct.HasherCommon, ptr %47, i32 0, i32 0
  %49 = getelementptr inbounds [4 x ptr], ptr %48, i64 0, i64 1
  %50 = load ptr, ptr %49, align 8, !tbaa !48
  %51 = load ptr, ptr %5, align 8, !tbaa !214
  %52 = getelementptr inbounds nuw %struct.H58, ptr %51, i32 0, i32 8
  store ptr %50, ptr %52, align 8, !tbaa !280
  %53 = load ptr, ptr %4, align 8, !tbaa !48
  %54 = getelementptr inbounds nuw %struct.HasherCommon, ptr %53, i32 0, i32 0
  %55 = getelementptr inbounds [4 x ptr], ptr %54, i64 0, i64 2
  %56 = load ptr, ptr %55, align 8, !tbaa !48
  %57 = load ptr, ptr %5, align 8, !tbaa !214
  %58 = getelementptr inbounds nuw %struct.H58, ptr %57, i32 0, i32 9
  store ptr %56, ptr %58, align 8, !tbaa !281
  %59 = load ptr, ptr %4, align 8, !tbaa !48
  %60 = getelementptr inbounds nuw %struct.HasherCommon, ptr %59, i32 0, i32 4
  %61 = getelementptr inbounds nuw %struct.BrotliHasherParams, ptr %60, i32 0, i32 2
  %62 = load i32, ptr %61, align 8, !tbaa !243
  %63 = load ptr, ptr %5, align 8, !tbaa !214
  %64 = getelementptr inbounds nuw %struct.H58, ptr %63, i32 0, i32 4
  store i32 %62, ptr %64, align 8, !tbaa !282
  %65 = load ptr, ptr %4, align 8, !tbaa !48
  %66 = getelementptr inbounds nuw %struct.HasherCommon, ptr %65, i32 0, i32 4
  %67 = getelementptr inbounds nuw %struct.BrotliHasherParams, ptr %66, i32 0, i32 3
  %68 = load i32, ptr %67, align 4, !tbaa !249
  %69 = load ptr, ptr %5, align 8, !tbaa !214
  %70 = getelementptr inbounds nuw %struct.H58, ptr %69, i32 0, i32 5
  store i32 %68, ptr %70, align 4, !tbaa !283
  ret void
}