; Function Attrs: mustprogress nofree norecurse nosync nounwind willreturn memory(argmem: readwrite) uwtable
define internal fastcc void @InitializeH58(ptr noundef %0, ptr noalias noundef writeonly captures(none) initializes((0, 64)) %1) unnamed_addr #0 {
  %3 = getelementptr inbounds nuw i8, ptr %1, i64 32
  store ptr %0, ptr %3, align 8, !tbaa !653
  %4 = getelementptr inbounds nuw i8, ptr %0, i64 60
  %5 = load i32, ptr %4, align 4, !tbaa !643
  %6 = sub i32 24, %5
  %7 = getelementptr inbounds nuw i8, ptr %1, i64 16
  store i32 %6, ptr %7, align 8, !tbaa !428
  %8 = zext nneg i32 %5 to i64
  %9 = shl nuw i64 1, %8
  store i64 %9, ptr %1, align 8, !tbaa !654
  %10 = getelementptr inbounds nuw i8, ptr %0, i64 64
  %11 = load i32, ptr %10, align 8, !tbaa !645
  %12 = zext nneg i32 %11 to i64
  %13 = shl nuw i64 1, %12
  %14 = getelementptr inbounds nuw i8, ptr %1, i64 8
  store i64 %13, ptr %14, align 8, !tbaa !655
  %15 = trunc i64 %13 to i32
  %16 = add i32 %15, -1
  %17 = getelementptr inbounds nuw i8, ptr %1, i64 20
  store i32 %16, ptr %17, align 4, !tbaa !429
  %18 = load ptr, ptr %0, align 8, !tbaa !63
  %19 = getelementptr inbounds nuw i8, ptr %1, i64 40
  store ptr %18, ptr %19, align 8, !tbaa !422
  %20 = getelementptr inbounds nuw i8, ptr %0, i64 8
  %21 = load ptr, ptr %20, align 8, !tbaa !63
  %22 = getelementptr inbounds nuw i8, ptr %1, i64 48
  store ptr %21, ptr %22, align 8, !tbaa !426
  %23 = getelementptr inbounds nuw i8, ptr %0, i64 16
  %24 = load ptr, ptr %23, align 8, !tbaa !63
  %25 = getelementptr inbounds nuw i8, ptr %1, i64 56
  store ptr %24, ptr %25, align 8, !tbaa !427
  %26 = getelementptr inbounds nuw i8, ptr %1, i64 24
  store i32 %11, ptr %26, align 8, !tbaa !430
  %27 = getelementptr inbounds nuw i8, ptr %0, i64 68
  %28 = load i32, ptr %27, align 4, !tbaa !647
  %29 = getelementptr inbounds nuw i8, ptr %1, i64 28
  store i32 %28, ptr %29, align 4, !tbaa !656
  ret void
}